target datalayout = "e-m:e-p270:32:32-p271:32:32-p272:64:64-i64:64-i128:128-f80:128-n8:16:32:64-S128"
target triple = "x86_64-unknown-linux-gnu"

%"class.facebook::velox::row::CompactRow" = type { i8, %"class.facebook::velox::DecodedVector", i8, %"class.std::vector.5", %"class.std::vector.10", i8, i64, i64 }
%"class.facebook::velox::DecodedVector" = type { i32, ptr, ptr, ptr, %"class.std::optional", ptr, i8, i8, i8, i8, i8, i32, %"class.std::vector", %"class.std::vector.0" }
%"class.std::optional" = type { %"struct.std::_Optional_base" }
%"struct.std::_Optional_base" = type { %"struct.std::_Optional_payload" }
%"struct.std::_Optional_payload" = type { %"struct.std::_Optional_payload_base.base", [7 x i8] }
%"struct.std::_Optional_payload_base.base" = type <{ %"union.std::_Optional_payload_base<const unsigned long *>::_Storage", i8 }>
%"union.std::_Optional_payload_base<const unsigned long *>::_Storage" = type { ptr }
%"class.std::vector" = type { %"struct.std::_Vector_base" }
%"struct.std::_Vector_base" = type { %"struct.std::_Vector_base<int, std::allocator<int>>::_Vector_impl" }
%"struct.std::_Vector_base<int, std::allocator<int>>::_Vector_impl" = type { %"struct.std::_Vector_base<int, std::allocator<int>>::_Vector_impl_data" }
%"struct.std::_Vector_base<int, std::allocator<int>>::_Vector_impl_data" = type { ptr, ptr, ptr }
%"class.std::vector.0" = type { %"struct.std::_Vector_base.1" }
%"struct.std::_Vector_base.1" = type { %"struct.std::_Vector_base<unsigned long, std::allocator<unsigned long>>::_Vector_impl" }
%"struct.std::_Vector_base<unsigned long, std::allocator<unsigned long>>::_Vector_impl" = type { %"struct.std::_Vector_base<unsigned long, std::allocator<unsigned long>>::_Vector_impl_data" }
%"struct.std::_Vector_base<unsigned long, std::allocator<unsigned long>>::_Vector_impl_data" = type { ptr, ptr, ptr }
%"class.std::vector.5" = type { %"struct.std::_Vector_base.6" }
%"struct.std::_Vector_base.6" = type { %"struct.std::_Vector_base<facebook::velox::row::CompactRow, std::allocator<facebook::velox::row::CompactRow>>::_Vector_impl" }
%"struct.std::_Vector_base<facebook::velox::row::CompactRow, std::allocator<facebook::velox::row::CompactRow>>::_Vector_impl" = type { %"struct.std::_Vector_base<facebook::velox::row::CompactRow, std::allocator<facebook::velox::row::CompactRow>>::_Vector_impl_data" }
%"struct.std::_Vector_base<facebook::velox::row::CompactRow, std::allocator<facebook::velox::row::CompactRow>>::_Vector_impl_data" = type { ptr, ptr, ptr }
%"class.std::vector.10" = type { %"struct.std::_Bvector_base" }
%"struct.std::_Bvector_base" = type { %"struct.std::_Bvector_base<std::allocator<bool>>::_Bvector_impl" }
%"struct.std::_Bvector_base<std::allocator<bool>>::_Bvector_impl" = type { %"struct.std::_Bvector_base<std::allocator<bool>>::_Bvector_impl_data" }
%"struct.std::_Bvector_base<std::allocator<bool>>::_Bvector_impl_data" = type { %"struct.std::_Bit_iterator", %"struct.std::_Bit_iterator", ptr }
%"struct.std::_Bit_iterator" = type { %"struct.std::_Bit_iterator_base.base", [4 x i8] }
%"struct.std::_Bit_iterator_base.base" = type <{ ptr, i32 }>

; Function Attrs: mustprogress nounwind uwtable
define linkonce_odr noundef zeroext i1 @_ZN8facebook5velox4bits8isBitSetImEEbPKT_i(ptr noundef %bits, i32 noundef %idx) #1 comdat {
entry:
  %bits.addr = alloca ptr, align 8
  %idx.addr = alloca i32, align 4
  store ptr %bits, ptr %bits.addr, align 8
  store i32 %idx, ptr %idx.addr, align 4
  %0 = load ptr, ptr %bits.addr, align 8
  %1 = load i32, ptr %idx.addr, align 4
  %conv = sext i32 %1 to i64
  %div = udiv i64 %conv, 64
  %arrayidx = getelementptr inbounds i64, ptr %0, i64 %div
  %2 = load i64, ptr %arrayidx, align 8
  %3 = load i32, ptr %idx.addr, align 4
  %conv1 = sext i32 %3 to i64
  %and = and i64 %conv1, 63
  %shl = shl i64 1, %and
  %and2 = and i64 %2, %shl
  %tobool = icmp ne i64 %and2, 0
  ret i1 %tobool
}

; Function Attrs: mustprogress uwtable
define linkonce_odr noundef zeroext i1 @_ZN8facebook5velox4bits9isBitNullEPKmi(ptr noundef %bits, i32 noundef %index) #0 comdat {
entry:
  %bits.addr = alloca ptr, align 8
  %index.addr = alloca i32, align 4
  store ptr %bits, ptr %bits.addr, align 8
  store i32 %index, ptr %index.addr, align 4
  %0 = load ptr, ptr %bits.addr, align 8
  %1 = load i32, ptr %index.addr, align 4
  %call = call noundef zeroext i1 @_ZN8facebook5velox4bits8isBitSetImEEbPKT_i(ptr noundef %0, i32 noundef %1)
  %conv = zext i1 %call to i32
  %cmp = icmp eq i32 %conv, 0
  ret i1 %cmp
}

; Function Attrs: mustprogress uwtable
define linkonce_odr noundef zeroext i1 @_ZNK8facebook5velox13DecodedVector8isNullAtEi(ptr noundef nonnull align 8 dereferenceable(120) %this, i32 noundef %idx) #0 comdat align 2 {
entry:
  %retval = alloca i1, align 1
  %this.addr = alloca ptr, align 8
  %idx.addr = alloca i32, align 4
  store ptr %this, ptr %this.addr, align 8
  store i32 %idx, ptr %idx.addr, align 4
  %this1 = load ptr, ptr %this.addr, align 8
  %nulls_ = getelementptr inbounds %"class.facebook::velox::DecodedVector", ptr %this1, i32 0, i32 3
  %0 = load ptr, ptr %nulls_, align 8
  %tobool = icmp ne ptr %0, null
  br i1 %tobool, label %if.end, label %if.then

if.then:                                          ; preds = %entry
  store i1 false, ptr %retval, align 1
  br label %return

if.end:                                           ; preds = %entry
  %isIdentityMapping_ = getelementptr inbounds %"class.facebook::velox::DecodedVector", ptr %this1, i32 0, i32 8
  %1 = load i8, ptr %isIdentityMapping_, align 2
  %tobool2 = trunc i8 %1 to i1
  br i1 %tobool2, label %if.then4, label %lor.lhs.false

lor.lhs.false:                                    ; preds = %if.end
  %hasExtraNulls_ = getelementptr inbounds %"class.facebook::velox::DecodedVector", ptr %this1, i32 0, i32 7
  %2 = load i8, ptr %hasExtraNulls_, align 1
  %tobool3 = trunc i8 %2 to i1
  br i1 %tobool3, label %if.then4, label %if.end6

if.then4:                                         ; preds = %lor.lhs.false, %if.end
  %nulls_5 = getelementptr inbounds %"class.facebook::velox::DecodedVector", ptr %this1, i32 0, i32 3
  %3 = load ptr, ptr %nulls_5, align 8
  %4 = load i32, ptr %idx.addr, align 4
  %call = call noundef zeroext i1 @_ZN8facebook5velox4bits9isBitNullEPKmi(ptr noundef %3, i32 noundef %4)
  store i1 %call, ptr %retval, align 1
  br label %return

if.end6:                                          ; preds = %lor.lhs.false
  %isConstantMapping_ = getelementptr inbounds %"class.facebook::velox::DecodedVector", ptr %this1, i32 0, i32 9
  %5 = load i8, ptr %isConstantMapping_, align 1
  %tobool7 = trunc i8 %5 to i1
  br i1 %tobool7, label %if.then8, label %if.end11

if.then8:                                         ; preds = %if.end6
  %nulls_9 = getelementptr inbounds %"class.facebook::velox::DecodedVector", ptr %this1, i32 0, i32 3
  %6 = load ptr, ptr %nulls_9, align 8
  %call10 = call noundef zeroext i1 @_ZN8facebook5velox4bits9isBitNullEPKmi(ptr noundef %6, i32 noundef 0)
  store i1 %call10, ptr %retval, align 1
  br label %return

if.end11:                                         ; preds = %if.end6
  %nulls_12 = getelementptr inbounds %"class.facebook::velox::DecodedVector", ptr %this1, i32 0, i32 3
  %7 = load ptr, ptr %nulls_12, align 8
  %indices_ = getelementptr inbounds %"class.facebook::velox::DecodedVector", ptr %this1, i32 0, i32 1
  %8 = load ptr, ptr %indices_, align 8
  %9 = load i32, ptr %idx.addr, align 4
  %idxprom = sext i32 %9 to i64
  %arrayidx = getelementptr inbounds i32, ptr %8, i64 %idxprom
  %10 = load i32, ptr %arrayidx, align 4
  %call13 = call noundef zeroext i1 @_ZN8facebook5velox4bits9isBitNullEPKmi(ptr noundef %7, i32 noundef %10)
  store i1 %call13, ptr %retval, align 1
  br label %return

return:                                           ; preds = %if.end11, %if.then8, %if.then4, %if.then
  %11 = load i1, ptr %retval, align 1
  ret i1 %11
}

; Function Attrs: mustprogress nounwind uwtable
define linkonce_odr noundef i32 @_ZN8facebook5velox4bits7roundUpIiiEET_S3_T0_(i32 noundef %value, i32 noundef %factor) #1 comdat {
entry:
  %value.addr = alloca i32, align 4
  %factor.addr = alloca i32, align 4
  store i32 %value, ptr %value.addr, align 4
  store i32 %factor, ptr %factor.addr, align 4
  %0 = load i32, ptr %value.addr, align 4
  %1 = load i32, ptr %factor.addr, align 4
  %sub = sub nsw i32 %1, 1
  %add = add nsw i32 %0, %sub
  %2 = load i32, ptr %factor.addr, align 4
  %div = sdiv i32 %add, %2
  %3 = load i32, ptr %factor.addr, align 4
  %mul = mul nsw i32 %div, %3
  ret i32 %mul
}

; Function Attrs: mustprogress uwtable
define noundef zeroext i1 @_ZN8facebook5velox3row10CompactRow8isNullAtEi(ptr noundef nonnull align 8 dereferenceable(224) %this, i32 noundef %index) #0 align 2 {
entry:
  %this.addr = alloca ptr, align 8
  %index.addr = alloca i32, align 4
  store ptr %this, ptr %this.addr, align 8
  store i32 %index, ptr %index.addr, align 4
  %this1 = load ptr, ptr %this.addr, align 8
  %decoded_ = getelementptr inbounds %"class.facebook::velox::row::CompactRow", ptr %this1, i32 0, i32 1
  %0 = load i32, ptr %index.addr, align 4
  %call = call noundef zeroext i1 @_ZNK8facebook5velox13DecodedVector8isNullAtEi(ptr noundef nonnull align 8 dereferenceable(120) %decoded_, i32 noundef %0)
  ret i1 %call
}

; Function Attrs: mustprogress nounwind uwtable
define linkonce_odr noundef i32 @_ZNK8facebook5velox3row10CompactRow10valueBytesEv(ptr noundef nonnull align 8 dereferenceable(224) %this) #1 comdat align 2 {
entry:
  %this.addr = alloca ptr, align 8
  store ptr %this, ptr %this.addr, align 8
  %this1 = load ptr, ptr %this.addr, align 8
  %valueBytes_ = getelementptr inbounds %"class.facebook::velox::row::CompactRow", ptr %this1, i32 0, i32 7
  %0 = load i64, ptr %valueBytes_, align 8
  %conv = trunc i64 %0 to i32
  ret i32 %conv
}

; Function Attrs: mustprogress uwtable
define linkonce_odr noundef i64 @_ZN8facebook5velox4bits6nbytesEi(i32 noundef %bits) #0 comdat {
entry:
  %bits.addr = alloca i32, align 4
  store i32 %bits, ptr %bits.addr, align 4
  %0 = load i32, ptr %bits.addr, align 4
  %call = call noundef i32 @_ZN8facebook5velox4bits7roundUpIiiEET_S3_T0_(i32 noundef %0, i32 noundef 8)
  %div = sdiv i32 %call, 8
  %conv = sext i32 %div to i64
  ret i64 %conv
}

; Function Attrs: mustprogress uwtable
define noundef i32 @_ZN8facebook5velox3row10CompactRow12arrayRowSizeERS2_iib(ptr noundef nonnull align 8 dereferenceable(224) %this, ptr noundef nonnull align 8 dereferenceable(224) %elements, i32 noundef %offset, i32 noundef %size, i1 noundef zeroext %fixedWidth) #0 align 2 {
entry:
  %retval = alloca i32, align 4
  %this.addr = alloca ptr, align 8
  %elements.addr = alloca ptr, align 8
  %offset.addr = alloca i32, align 4
  %size.addr = alloca i32, align 4
  %fixedWidth.addr = alloca i8, align 1
  %nullBytes = alloca i32, align 4
  %rowSize = alloca i32, align 4
  %i = alloca i32, align 4
  store ptr %this, ptr %this.addr, align 8
  store ptr %elements, ptr %elements.addr, align 8
  store i32 %offset, ptr %offset.addr, align 4
  store i32 %size, ptr %size.addr, align 4
  %frombool = zext i1 %fixedWidth to i8
  store i8 %frombool, ptr %fixedWidth.addr, align 1
  %0 = load i32, ptr %size.addr, align 4
  %call = call noundef i64 @_ZN8facebook5velox4bits6nbytesEi(i32 noundef %0)
  %conv = trunc i64 %call to i32
  store i32 %conv, ptr %nullBytes, align 4
  %1 = load i32, ptr %nullBytes, align 4
  %conv2 = sext i32 %1 to i64
  %add = add i64 4, %conv2
  %conv3 = trunc i64 %add to i32
  store i32 %conv3, ptr %rowSize, align 4
  %2 = load i8, ptr %fixedWidth.addr, align 1
  %tobool = trunc i8 %2 to i1
  br i1 %tobool, label %if.then, label %if.end

if.then:                                          ; preds = %entry
  %3 = load i32, ptr %rowSize, align 4
  %4 = load i32, ptr %size.addr, align 4
  %5 = load ptr, ptr %elements.addr, align 8
  %call4 = call noundef i32 @_ZNK8facebook5velox3row10CompactRow10valueBytesEv(ptr noundef nonnull align 8 dereferenceable(224) %5)
  %mul = mul nsw i32 %4, %call4
  %add5 = add nsw i32 %3, %mul
  store i32 %add5, ptr %retval, align 4
  br label %return

if.end:                                           ; preds = %entry
  %6 = load i32, ptr %size.addr, align 4
  %cmp = icmp eq i32 %6, 0
  br i1 %cmp, label %if.then6, label %if.end7

if.then6:                                         ; preds = %if.end
  %7 = load i32, ptr %rowSize, align 4
  store i32 %7, ptr %retval, align 4
  br label %return

if.end7:                                          ; preds = %if.end
  %8 = load ptr, ptr %elements.addr, align 8
  %typeKind_ = getelementptr inbounds %"class.facebook::velox::row::CompactRow", ptr %8, i32 0, i32 0
  %9 = load i8, ptr %typeKind_, align 8
  %cmp8 = icmp eq i8 %9, 7
  br i1 %cmp8, label %if.end18, label %lor.lhs.false

lor.lhs.false:                                    ; preds = %if.end7
  %10 = load ptr, ptr %elements.addr, align 8
  %typeKind_9 = getelementptr inbounds %"class.facebook::velox::row::CompactRow", ptr %10, i32 0, i32 0
  %11 = load i8, ptr %typeKind_9, align 8
  %cmp10 = icmp eq i8 %11, 8
  br i1 %cmp10, label %if.end18, label %if.then11

if.then11:                                        ; preds = %lor.lhs.false
  %12 = load i32, ptr %size.addr, align 4
  %conv12 = sext i32 %12 to i64
  %mul13 = mul i64 %conv12, 4
  %add14 = add i64 4, %mul13
  %13 = load i32, ptr %rowSize, align 4
  %conv15 = sext i32 %13 to i64
  %add16 = add i64 %conv15, %add14
  %conv17 = trunc i64 %add16 to i32
  store i32 %conv17, ptr %rowSize, align 4
  br label %if.end18

if.end18:                                         ; preds = %if.then11, %lor.lhs.false, %if.end7
  store i32 0, ptr %i, align 4
  br label %for.cond

for.cond:                                         ; preds = %for.inc, %if.end18
  %14 = load i32, ptr %i, align 4
  %15 = load i32, ptr %size.addr, align 4
  %cmp19 = icmp slt i32 %14, %15
  br i1 %cmp19, label %for.body, label %for.end

for.body:                                         ; preds = %for.cond
  %16 = load ptr, ptr %elements.addr, align 8
  %17 = load i32, ptr %offset.addr, align 4
  %18 = load i32, ptr %i, align 4
  %add20 = add nsw i32 %17, %18
  %call21 = call noundef zeroext i1 @_ZN8facebook5velox3row10CompactRow8isNullAtEi(ptr noundef nonnull align 8 dereferenceable(224) %16, i32 noundef %add20)
  br i1 %call21, label %if.end26, label %if.then22

if.then22:                                        ; preds = %for.body
  %19 = load ptr, ptr %elements.addr, align 8
  %20 = load i32, ptr %offset.addr, align 4
  %21 = load i32, ptr %i, align 4
  %add23 = add nsw i32 %20, %21
  %call24 = call noundef i32 @_ZN8facebook5velox3row10CompactRow20variableWidthRowSizeEi(ptr noundef nonnull align 8 dereferenceable(224) %19, i32 noundef %add23)
  %22 = load i32, ptr %rowSize, align 4
  %add25 = add nsw i32 %22, %call24
  store i32 %add25, ptr %rowSize, align 4
  br label %if.end26

if.end26:                                         ; preds = %if.then22, %for.body
  br label %for.inc

for.inc:                                          ; preds = %if.end26
  %23 = load i32, ptr %i, align 4
  %inc = add nsw i32 %23, 1
  store i32 %inc, ptr %i, align 4
  br label %for.cond, !llvm.loop !8

for.end:                                          ; preds = %for.cond
  %24 = load i32, ptr %rowSize, align 4
  store i32 %24, ptr %retval, align 4
  br label %return

return:                                           ; preds = %for.end, %if.then6, %if.then
  %25 = load i32, ptr %retval, align 4
  ret i32 %25
}