; Function Attrs: mustprogress nounwind memory(read, inaccessiblemem: write) uwtable
define noundef i32 @_ZN8facebook5velox3row10CompactRow12arrayRowSizeERS2_iib(ptr nocapture nonnull readnone align 8 %this, ptr nocapture noundef nonnull readonly align 8 dereferenceable(224) %elements, i32 noundef %offset, i32 noundef %size, i1 noundef zeroext %fixedWidth) local_unnamed_addr #2 align 2 {
entry:
  %add.i.i = add i32 %size, 7
  %div.i = sdiv i32 %add.i.i, 8
  %conv3 = add nsw i32 %div.i, 4
  br i1 %fixedWidth, label %if.then, label %if.end

if.then:                                          ; preds = %entry
  %valueBytes_.i = getelementptr inbounds i8, ptr %elements, i64 216
  %0 = load i64, ptr %valueBytes_.i, align 8
  %conv.i17 = trunc i64 %0 to i32
  %mul = mul nsw i32 %conv.i17, %size
  %add5 = add nsw i32 %mul, %conv3
  br label %return

if.end:                                           ; preds = %entry
  %cmp = icmp eq i32 %size, 0
  br i1 %cmp, label %return, label %if.end7

if.end7:                                          ; preds = %if.end
  %1 = load i8, ptr %elements, align 8
  %.off = add i8 %1, -7
  %switch = icmp ult i8 %.off, 2
  %mul13 = shl i32 %size, 2
  %add14 = add i32 %mul13, 4
  %add16 = select i1 %switch, i32 0, i32 %add14
  %rowSize.0 = add i32 %add16, %conv3
  %cmp1919 = icmp sgt i32 %size, 0
  br i1 %cmp1919, label %for.body.lr.ph, label %return

for.body.lr.ph:                                   ; preds = %if.end7
  %nulls_.i.i = getelementptr inbounds i8, ptr %elements, i64 32
  %2 = load ptr, ptr %nulls_.i.i, align 8
  %tobool.not.i.i = icmp eq ptr %2, null
  %hasExtraNulls_.i.i = getelementptr inbounds i8, ptr %elements, i64 65
  %3 = load i8, ptr %hasExtraNulls_.i.i, align 1
  %4 = and i8 %3, 1
  %tobool3.not.i.i = icmp eq i8 %4, 0
  %isConstantMapping_.i.i = getelementptr inbounds i8, ptr %elements, i64 67
  %5 = load i8, ptr %isConstantMapping_.i.i, align 1
  %6 = and i8 %5, 1
  %tobool7.not.i.i = icmp eq i8 %6, 0
  %indices_.i.i = getelementptr inbounds i8, ptr %elements, i64 16
  %7 = load ptr, ptr %indices_.i.i, align 8
  br i1 %tobool.not.i.i, label %for.body.us, label %for.body.lr.ph.split

for.body.us:                                      ; preds = %for.body.lr.ph, %for.body.us
  %i.021.us = phi i32 [ %inc.us, %for.body.us ], [ 0, %for.body.lr.ph ]
  %rowSize.120.us = phi i32 [ %add25.us, %for.body.us ], [ %rowSize.0, %for.body.lr.ph ]
  %add20.us = add nsw i32 %i.021.us, %offset
  %call24.us = tail call noundef i32 @_ZN8facebook5velox3row10CompactRow20variableWidthRowSizeEi(ptr noundef nonnull align 8 dereferenceable(224) %elements, i32 noundef %add20.us)
  %add25.us = add nsw i32 %call24.us, %rowSize.120.us
  %inc.us = add nuw nsw i32 %i.021.us, 1
  %exitcond67.not = icmp eq i32 %inc.us, %size
  br i1 %exitcond67.not, label %return, label %for.body.us, !llvm.loop !8

for.body.lr.ph.split:                             ; preds = %for.body.lr.ph
  %isIdentityMapping_.i.i = getelementptr inbounds i8, ptr %elements, i64 66
  %8 = load i8, ptr %isIdentityMapping_.i.i, align 2
  %9 = and i8 %8, 1
  %tobool2.not.i.i = icmp eq i8 %9, 0
  br i1 %tobool2.not.i.i, label %for.body.lr.ph.split.split.us, label %for.body.preheader

for.body.preheader:                               ; preds = %for.body.lr.ph.split
  %10 = sext i32 %offset to i64
  %wide.trip.count = zext nneg i32 %size to i64
  br label %for.body

for.body.lr.ph.split.split.us:                    ; preds = %for.body.lr.ph.split
  br i1 %tobool3.not.i.i, label %for.body.lr.ph.split.split.us.split.us, label %for.body.us22.preheader

for.body.us22.preheader:                          ; preds = %for.body.lr.ph.split.split.us
  %11 = sext i32 %offset to i64
  %wide.trip.count58 = zext nneg i32 %size to i64
  br label %for.body.us22

for.body.lr.ph.split.split.us.split.us:           ; preds = %for.body.lr.ph.split.split.us
  br i1 %tobool7.not.i.i, label %for.body.us22.us.us.preheader, label %for.body.lr.ph.split.split.us.split.us.split

for.body.us22.us.us.preheader:                    ; preds = %for.body.lr.ph.split.split.us.split.us
  %12 = sext i32 %offset to i64
  %wide.trip.count65 = zext nneg i32 %size to i64
  br label %for.body.us22.us.us

for.body.us22.us.us:                              ; preds = %for.body.us22.us.us.preheader, %for.inc.us29.us.us
  %indvars.iv61 = phi i64 [ 0, %for.body.us22.us.us.preheader ], [ %indvars.iv.next62, %for.inc.us29.us.us ]
  %rowSize.120.us24.us.us = phi i32 [ %rowSize.0, %for.body.us22.us.us.preheader ], [ %rowSize.2.us30.us.us, %for.inc.us29.us.us ]
  %13 = add nsw i64 %indvars.iv61, %12
  %arrayidx.i.i.us.us.us = getelementptr inbounds i32, ptr %7, i64 %13
  %14 = load i32, ptr %arrayidx.i.i.us.us.us, align 4
  %conv.i.i4.i.i.us.us.us = sext i32 %14 to i64
  %div2.i.i5.i.i.us.us.us = lshr i64 %conv.i.i4.i.i.us.us.us, 6
  %arrayidx.i.i6.i.i.us.us.us = getelementptr inbounds i64, ptr %2, i64 %div2.i.i5.i.i.us.us.us
  %15 = load i64, ptr %arrayidx.i.i6.i.i.us.us.us, align 8
  %and.i.i7.i.i.us.us.us = and i64 %conv.i.i4.i.i.us.us.us, 63
  %shl.i.i8.i.i.us.us.us = shl nuw i64 1, %and.i.i7.i.i.us.us.us
  %and2.i.i9.i.i.us.us.us = and i64 %shl.i.i8.i.i.us.us.us, %15
  %tobool.i.not.i10.i.i.us.us.us = icmp eq i64 %and2.i.i9.i.i.us.us.us, 0
  br i1 %tobool.i.not.i10.i.i.us.us.us, label %for.inc.us29.us.us, label %if.then22.us26.us.us

if.then22.us26.us.us:                             ; preds = %for.body.us22.us.us
  %16 = trunc i64 %13 to i32
  %call24.us27.us.us = tail call noundef i32 @_ZN8facebook5velox3row10CompactRow20variableWidthRowSizeEi(ptr noundef nonnull align 8 dereferenceable(224) %elements, i32 noundef %16)
  %add25.us28.us.us = add nsw i32 %call24.us27.us.us, %rowSize.120.us24.us.us
  br label %for.inc.us29.us.us

for.inc.us29.us.us:                               ; preds = %if.then22.us26.us.us, %for.body.us22.us.us
  %rowSize.2.us30.us.us = phi i32 [ %rowSize.120.us24.us.us, %for.body.us22.us.us ], [ %add25.us28.us.us, %if.then22.us26.us.us ]
  %indvars.iv.next62 = add nuw nsw i64 %indvars.iv61, 1
  %exitcond66.not = icmp eq i64 %indvars.iv.next62, %wide.trip.count65
  br i1 %exitcond66.not, label %return, label %for.body.us22.us.us, !llvm.loop !8

for.body.lr.ph.split.split.us.split.us.split:     ; preds = %for.body.lr.ph.split.split.us.split.us
  %17 = load i64, ptr %2, align 8
  %and2.i.i2.i.i.us.us = and i64 %17, 1
  %tobool.i.not.i3.i.i.us.us = icmp eq i64 %and2.i.i2.i.i.us.us, 0
  br i1 %tobool.i.not.i3.i.i.us.us, label %return, label %for.body.us22.us

for.body.us22.us:                                 ; preds = %for.body.lr.ph.split.split.us.split.us.split, %for.body.us22.us
  %i.021.us23.us = phi i32 [ %inc.us31.us, %for.body.us22.us ], [ 0, %for.body.lr.ph.split.split.us.split.us.split ]
  %rowSize.120.us24.us = phi i32 [ %add25.us28.us, %for.body.us22.us ], [ %rowSize.0, %for.body.lr.ph.split.split.us.split.us.split ]
  %add20.us25.us = add nsw i32 %i.021.us23.us, %offset
  %call24.us27.us = tail call noundef i32 @_ZN8facebook5velox3row10CompactRow20variableWidthRowSizeEi(ptr noundef nonnull align 8 dereferenceable(224) %elements, i32 noundef %add20.us25.us)
  %add25.us28.us = add nsw i32 %call24.us27.us, %rowSize.120.us24.us
  %inc.us31.us = add nuw nsw i32 %i.021.us23.us, 1
  %exitcond60.not = icmp eq i32 %inc.us31.us, %size
  br i1 %exitcond60.not, label %return, label %for.body.us22.us, !llvm.loop !8

for.body.us22:                                    ; preds = %for.body.us22.preheader, %for.inc.us29
  %indvars.iv54 = phi i64 [ 0, %for.body.us22.preheader ], [ %indvars.iv.next55, %for.inc.us29 ]
  %rowSize.120.us24 = phi i32 [ %rowSize.0, %for.body.us22.preheader ], [ %rowSize.2.us30, %for.inc.us29 ]
  %18 = add nsw i64 %indvars.iv54, %11
  %div2.i.i.i.i.us = lshr i64 %18, 6
  %arrayidx.i.i.i.i.us = getelementptr inbounds i64, ptr %2, i64 %div2.i.i.i.i.us
  %19 = load i64, ptr %arrayidx.i.i.i.i.us, align 8
  %and.i.i.i.i.us = and i64 %18, 63
  %shl.i.i.i.i.us = shl nuw i64 1, %and.i.i.i.i.us
  %and2.i.i.i.i.us = and i64 %shl.i.i.i.i.us, %19
  %tobool.i.not.i.i.i.us = icmp eq i64 %and2.i.i.i.i.us, 0
  br i1 %tobool.i.not.i.i.i.us, label %for.inc.us29, label %if.then22.us26

if.then22.us26:                                   ; preds = %for.body.us22
  %20 = trunc i64 %18 to i32
  %call24.us27 = tail call noundef i32 @_ZN8facebook5velox3row10CompactRow20variableWidthRowSizeEi(ptr noundef nonnull align 8 dereferenceable(224) %elements, i32 noundef %20)
  %add25.us28 = add nsw i32 %call24.us27, %rowSize.120.us24
  br label %for.inc.us29

for.inc.us29:                                     ; preds = %if.then22.us26, %for.body.us22
  %rowSize.2.us30 = phi i32 [ %add25.us28, %if.then22.us26 ], [ %rowSize.120.us24, %for.body.us22 ]
  %indvars.iv.next55 = add nuw nsw i64 %indvars.iv54, 1
  %exitcond59.not = icmp eq i64 %indvars.iv.next55, %wide.trip.count58
  br i1 %exitcond59.not, label %return, label %for.body.us22, !llvm.loop !8

for.body:                                         ; preds = %for.body.preheader, %for.inc
  %indvars.iv = phi i64 [ 0, %for.body.preheader ], [ %indvars.iv.next, %for.inc ]
  %rowSize.120 = phi i32 [ %rowSize.0, %for.body.preheader ], [ %rowSize.2, %for.inc ]
  %21 = add nsw i64 %indvars.iv, %10
  %div2.i.i.i.i = lshr i64 %21, 6
  %arrayidx.i.i.i.i = getelementptr inbounds i64, ptr %2, i64 %div2.i.i.i.i
  %22 = load i64, ptr %arrayidx.i.i.i.i, align 8
  %and.i.i.i.i = and i64 %21, 63
  %shl.i.i.i.i = shl nuw i64 1, %and.i.i.i.i
  %and2.i.i.i.i = and i64 %shl.i.i.i.i, %22
  %tobool.i.not.i.i.i = icmp eq i64 %and2.i.i.i.i, 0
  br i1 %tobool.i.not.i.i.i, label %for.inc, label %if.then22

if.then22:                                        ; preds = %for.body
  %23 = trunc i64 %21 to i32
  %call24 = tail call noundef i32 @_ZN8facebook5velox3row10CompactRow20variableWidthRowSizeEi(ptr noundef nonnull align 8 dereferenceable(224) %elements, i32 noundef %23)
  %add25 = add nsw i32 %call24, %rowSize.120
  br label %for.inc

for.inc:                                          ; preds = %for.body, %if.then22
  %rowSize.2 = phi i32 [ %add25, %if.then22 ], [ %rowSize.120, %for.body ]
  %indvars.iv.next = add nuw nsw i64 %indvars.iv, 1
  %exitcond.not = icmp eq i64 %indvars.iv.next, %wide.trip.count
  br i1 %exitcond.not, label %return, label %for.body, !llvm.loop !8

return:                                           ; preds = %for.inc, %for.inc.us29, %for.body.us22.us, %for.inc.us29.us.us, %for.body.us, %for.body.lr.ph.split.split.us.split.us.split, %if.end7, %if.end, %if.then
  %retval.0 = phi i32 [ %add5, %if.then ], [ %conv3, %if.end ], [ %rowSize.0, %if.end7 ], [ %rowSize.0, %for.body.lr.ph.split.split.us.split.us.split ], [ %add25.us, %for.body.us ], [ %rowSize.2.us30.us.us, %for.inc.us29.us.us ], [ %add25.us28.us, %for.body.us22.us ], [ %rowSize.2.us30, %for.inc.us29 ], [ %rowSize.2, %for.inc ]
  ret i32 %retval.0
}